target datalayout = "e-m:e-p270:32:32-p271:32:32-p272:64:64-i64:64-i128:128-f80:128-n8:16:32:64-S128"
target triple = "x86_64-pc-linux-gnu"

%struct.Qureg = type { i32, i32, i32, i64, i64, i32, i32, %struct.ComplexArray, %struct.ComplexArray, %struct.ComplexArray, ptr, ptr, ptr, ptr, ptr, ptr }
%struct.ComplexArray = type { ptr, ptr }
%struct.Complex = type { double, double }

@__func__.getDensityAmp = private unnamed_addr constant [14 x i8] c"getDensityAmp\00", align 1

; Function Attrs: nounwind uwtable
define { double, double } @getDensityAmp(ptr noundef byval(%struct.Qureg) align 8 %0, i64 noundef %1, i64 noundef %2) #0 {
  %4 = alloca %struct.Complex, align 8
  %5 = alloca i64, align 8
  %6 = alloca i64, align 8
  %7 = alloca i64, align 8
  store i64 %1, ptr %5, align 8, !tbaa !22
  store i64 %2, ptr %6, align 8, !tbaa !22
  call void @validateDensityMatrQureg(ptr noundef byval(%struct.Qureg) align 8 %0, ptr noundef @__func__.getDensityAmp)
  %8 = load i64, ptr %5, align 8, !tbaa !22
  call void @validateAmpIndex(ptr noundef byval(%struct.Qureg) align 8 %0, i64 noundef %8, ptr noundef @__func__.getDensityAmp)
  %9 = load i64, ptr %6, align 8, !tbaa !22
  call void @validateAmpIndex(ptr noundef byval(%struct.Qureg) align 8 %0, i64 noundef %9, ptr noundef @__func__.getDensityAmp)
  call void @llvm.lifetime.start.p0(i64 8, ptr %7) #7
  %10 = load i64, ptr %5, align 8, !tbaa !22
  %11 = load i64, ptr %6, align 8, !tbaa !22
  %12 = getelementptr inbounds nuw %struct.Qureg, ptr %0, i32 0, i32 1
  %13 = load i32, ptr %12, align 4, !tbaa !18
  %14 = zext i32 %13 to i64
  %15 = shl i64 1, %14
  %16 = mul nsw i64 %11, %15
  %17 = add nsw i64 %10, %16
  store i64 %17, ptr %7, align 8, !tbaa !22
  %18 = load i64, ptr %7, align 8, !tbaa !22
  %19 = call double @statevec_getRealAmp(ptr noundef byval(%struct.Qureg) align 8 %0, i64 noundef %18)
  %20 = getelementptr inbounds nuw %struct.Complex, ptr %4, i32 0, i32 0
  store double %19, ptr %20, align 8, !tbaa !32
  %21 = load i64, ptr %7, align 8, !tbaa !22
  %22 = call double @statevec_getImagAmp(ptr noundef byval(%struct.Qureg) align 8 %0, i64 noundef %21)
  %23 = getelementptr inbounds nuw %struct.Complex, ptr %4, i32 0, i32 1
  store double %22, ptr %23, align 8, !tbaa !34
  call void @llvm.lifetime.end.p0(i64 8, ptr %7) #7
  %24 = load { double, double }, ptr %4, align 8
  ret { double, double } %24
}