; Function Attrs: nounwind uwtable
define { double, double } @getDensityAmp(ptr noundef readonly byval(%struct.Qureg) align 8 captures(none) %0, i64 noundef %1, i64 noundef %2) local_unnamed_addr #0 {
  tail call void @validateDensityMatrQureg(ptr noundef nonnull byval(%struct.Qureg) align 8 %0, ptr noundef nonnull @__func__.getDensityAmp) #17
  tail call void @validateAmpIndex(ptr noundef nonnull byval(%struct.Qureg) align 8 %0, i64 noundef %1, ptr noundef nonnull @__func__.getDensityAmp) #17
  tail call void @validateAmpIndex(ptr noundef nonnull byval(%struct.Qureg) align 8 %0, i64 noundef %2, ptr noundef nonnull @__func__.getDensityAmp) #17
  %4 = getelementptr inbounds nuw i8, ptr %0, i64 4
  %5 = load i32, ptr %4, align 4, !tbaa !17
  %6 = zext nneg i32 %5 to i64
  %7 = shl i64 %2, %6
  %8 = add nsw i64 %7, %1
  %9 = tail call double @statevec_getRealAmp(ptr noundef nonnull byval(%struct.Qureg) align 8 %0, i64 noundef %8) #17
  %10 = tail call double @statevec_getImagAmp(ptr noundef nonnull byval(%struct.Qureg) align 8 %0, i64 noundef %8) #17
  %.fca.0.insert = insertvalue { double, double } poison, double %9, 0
  %.fca.1.insert = insertvalue { double, double } %.fca.0.insert, double %10, 1
  ret { double, double } %.fca.1.insert
}